target datalayout = "e-m:e-p270:32:32-p271:32:32-p272:64:64-i64:64-i128:128-f80:128-n8:16:32:64-S128"
target triple = "x86_64-pc-linux-gnu"

%"class.std::__cxx11::basic_string" = type { %"struct.std::__cxx11::basic_string<char>::_Alloc_hider", i64, %union.anon }
%"struct.std::__cxx11::basic_string<char>::_Alloc_hider" = type { ptr }
%union.anon = type { i64, [8 x i8] }
%"struct.DeformationModel::Component::TimeFunction" = type { ptr, %"class.std::__cxx11::basic_string" }
%"class.DeformationModel::Epoch" = type { %"class.std::__cxx11::basic_string", double }
%"struct.DeformationModel::Component::ExponentialTimeFunction" = type { %"struct.DeformationModel::Component::TimeFunction", %"class.DeformationModel::Epoch", %"class.DeformationModel::Epoch", double, double, double, double }

; Function Attrs: mustprogress nounwind uwtable
define linkonce_odr noundef nonnull align 8 dereferenceable(8) ptr @_ZSt3minIdERKT_S2_S2_(ptr noundef nonnull align 8 dereferenceable(8) %0, ptr noundef nonnull align 8 dereferenceable(8) %1) #0 comdat {
  %3 = alloca ptr, align 8
  %4 = alloca ptr, align 8
  %5 = alloca ptr, align 8
  store ptr %0, ptr %4, align 8
  store ptr %1, ptr %5, align 8
  %6 = load ptr, ptr %5, align 8
  %7 = load double, ptr %6, align 8
  %8 = load ptr, ptr %4, align 8
  %9 = load double, ptr %8, align 8
  %10 = fcmp olt double %7, %9
  br i1 %10, label %11, label %13

11:                                               ; preds = %2
  %12 = load ptr, ptr %5, align 8
  store ptr %12, ptr %3, align 8
  br label %15

13:                                               ; preds = %2
  %14 = load ptr, ptr %4, align 8
  store ptr %14, ptr %3, align 8
  br label %15

15:                                               ; preds = %13, %11
  %16 = load ptr, ptr %3, align 8
  ret ptr %16
}

; Function Attrs: mustprogress nounwind uwtable
define linkonce_odr hidden noundef nonnull align 8 dereferenceable(32) ptr @_ZNK16DeformationModel5Epoch8toStringB5cxx11Ev(ptr noundef nonnull align 8 dereferenceable(40) %0) #0 comdat align 2 {
  %2 = alloca ptr, align 8
  store ptr %0, ptr %2, align 8
  %3 = load ptr, ptr %2, align 8
  %4 = getelementptr inbounds %"class.DeformationModel::Epoch", ptr %3, i32 0, i32 0
  ret ptr %4
}

; Function Attrs: mustprogress nounwind uwtable
define hidden noundef double @_ZNK16DeformationModel5Epoch13toDecimalYearEv(ptr noundef nonnull align 8 dereferenceable(40) %0) #0 align 2 {
  %2 = alloca ptr, align 8
  store ptr %0, ptr %2, align 8
  %3 = load ptr, ptr %2, align 8
  %4 = getelementptr inbounds %"class.DeformationModel::Epoch", ptr %3, i32 0, i32 1
  %5 = load double, ptr %4, align 8
  ret double %5
}

; Function Attrs: mustprogress uwtable
define hidden noundef double @_ZNK16DeformationModel9Component23ExponentialTimeFunction10evaluateAtEd(ptr noundef nonnull align 8 dereferenceable(152) %0, double noundef %1) unnamed_addr #6 align 2 {
  %3 = alloca double, align 8
  %4 = alloca ptr, align 8
  %5 = alloca double, align 8
  %6 = alloca double, align 8
  %7 = alloca double, align 8
  store ptr %0, ptr %4, align 8
  store double %1, ptr %5, align 8
  %8 = load ptr, ptr %4, align 8
  %9 = getelementptr inbounds %"struct.DeformationModel::Component::ExponentialTimeFunction", ptr %8, i32 0, i32 1
  %10 = call noundef double @_ZNK16DeformationModel5Epoch13toDecimalYearEv(ptr noundef nonnull align 8 dereferenceable(40) %9)
  store double %10, ptr %6, align 8
  %11 = load double, ptr %5, align 8
  %12 = load double, ptr %6, align 8
  %13 = fcmp olt double %11, %12
  br i1 %13, label %14, label %17

14:                                               ; preds = %2
  %15 = getelementptr inbounds %"struct.DeformationModel::Component::ExponentialTimeFunction", ptr %8, i32 0, i32 4
  %16 = load double, ptr %15, align 8
  store double %16, ptr %3, align 8
  br label %44

17:                                               ; preds = %2
  %18 = getelementptr inbounds %"struct.DeformationModel::Component::ExponentialTimeFunction", ptr %8, i32 0, i32 2
  %19 = call noundef nonnull align 8 dereferenceable(32) ptr @_ZNK16DeformationModel5Epoch8toStringB5cxx11Ev(ptr noundef nonnull align 8 dereferenceable(40) %18)
  %20 = call noundef zeroext i1 @_ZNKSt7__cxx1112basic_stringIcSt11char_traitsIcESaIcEE5emptyEv(ptr noundef nonnull align 8 dereferenceable(32) %19) #5
  br i1 %20, label %26, label %21

21:                                               ; preds = %17
  %22 = getelementptr inbounds %"struct.DeformationModel::Component::ExponentialTimeFunction", ptr %8, i32 0, i32 2
  %23 = call noundef double @_ZNK16DeformationModel5Epoch13toDecimalYearEv(ptr noundef nonnull align 8 dereferenceable(40) %22)
  store double %23, ptr %7, align 8
  %24 = call noundef nonnull align 8 dereferenceable(8) ptr @_ZSt3minIdERKT_S2_S2_(ptr noundef nonnull align 8 dereferenceable(8) %5, ptr noundef nonnull align 8 dereferenceable(8) %7)
  %25 = load double, ptr %24, align 8
  store double %25, ptr %5, align 8
  br label %26

26:                                               ; preds = %21, %17
  %27 = getelementptr inbounds %"struct.DeformationModel::Component::ExponentialTimeFunction", ptr %8, i32 0, i32 5
  %28 = load double, ptr %27, align 8
  %29 = getelementptr inbounds %"struct.DeformationModel::Component::ExponentialTimeFunction", ptr %8, i32 0, i32 6
  %30 = load double, ptr %29, align 8
  %31 = getelementptr inbounds %"struct.DeformationModel::Component::ExponentialTimeFunction", ptr %8, i32 0, i32 5
  %32 = load double, ptr %31, align 8
  %33 = fsub double %30, %32
  %34 = load double, ptr %5, align 8
  %35 = load double, ptr %6, align 8
  %36 = fsub double %34, %35
  %37 = fneg double %36
  %38 = getelementptr inbounds %"struct.DeformationModel::Component::ExponentialTimeFunction", ptr %8, i32 0, i32 3
  %39 = load double, ptr %38, align 8
  %40 = fdiv double %37, %39
  %41 = call double @exp(double noundef %40) #5
  %42 = fsub double 1.000000e+00, %41
  %43 = call double @llvm.fmuladd.f64(double %33, double %42, double %28)
  store double %43, ptr %3, align 8
  br label %44

44:                                               ; preds = %26, %14
  %45 = load double, ptr %3, align 8
  ret double %45
}