; Function Attrs: mustprogress nounwind uwtable
define hidden noundef double @_ZNK16DeformationModel9Component23ExponentialTimeFunction10evaluateAtEd(ptr noundef nonnull align 8 dereferenceable(152) %0, double noundef %1) unnamed_addr #0 align 2 {
  %3 = getelementptr inbounds i8, ptr %0, i64 72
  %4 = load double, ptr %3, align 8
  %5 = fcmp ogt double %4, %1
  br i1 %5, label %6, label %9

6:                                                ; preds = %2
  %7 = getelementptr inbounds i8, ptr %0, i64 128
  %8 = load double, ptr %7, align 8
  br label %30

9:                                                ; preds = %2
  %10 = getelementptr inbounds i8, ptr %0, i64 80
  %11 = tail call noundef zeroext i1 @_ZNKSt7__cxx1112basic_stringIcSt11char_traitsIcESaIcEE5emptyEv(ptr noundef nonnull align 8 dereferenceable(32) %10) #29
  br i1 %11, label %16, label %12

12:                                               ; preds = %9
  %13 = getelementptr inbounds i8, ptr %0, i64 112
  %14 = load double, ptr %13, align 8
  %15 = fcmp olt double %14, %1
  %.sroa.speculated = select i1 %15, double %14, double %1
  br label %16

16:                                               ; preds = %12, %9
  %.07 = phi double [ %1, %9 ], [ %.sroa.speculated, %12 ]
  %17 = getelementptr inbounds i8, ptr %0, i64 136
  %18 = load double, ptr %17, align 8
  %19 = getelementptr inbounds i8, ptr %0, i64 144
  %20 = load double, ptr %19, align 8
  %21 = fsub double %20, %18
  %22 = fsub double %.07, %4
  %23 = fneg double %22
  %24 = getelementptr inbounds i8, ptr %0, i64 120
  %25 = load double, ptr %24, align 8
  %26 = fdiv double %23, %25
  %27 = tail call double @exp(double noundef %26) #29
  %28 = fsub double 1.000000e+00, %27
  %29 = tail call double @llvm.fmuladd.f64(double %21, double %28, double %18)
  br label %30

30:                                               ; preds = %16, %6
  %.0 = phi double [ %8, %6 ], [ %29, %16 ]
  ret double %.0
}